; Function Attrs: uwtable
define noundef i32 @_ZThn16_NK17FilterLayerPlugin13postConditionEPK7QAction(ptr noundef %0, ptr noundef %1) unnamed_addr #13 align 2 {
  %3 = load ptr, ptr %0, align 8
  %4 = getelementptr inbounds i8, ptr %3, i64 144
  %5 = load ptr, ptr %4, align 8
  %6 = tail call noundef i32 %5(ptr noundef nonnull align 8 dereferenceable(64) %0, ptr noundef %1)
  %.off.i = add i32 %6, -1
  %switch.i = icmp ult i32 %.off.i, 2
  %spec.select.i = select i1 %switch.i, i32 1126071271, i32 0
  ret i32 %spec.select.i
}